Certificate:
    Data:
        Version: 3 (0x2)
        Serial Number: 5073914031116151349 (0x466a29edb58c6a35)
        Signature Algorithm: sha256WithRSAEncryption
        Issuer: CN=National root CA for the Italian Electronic Identity Card, OU=Direz. Centr. per i Servizi Demografici - CNSD, O=Ministero dell'Interno, C=IT
        Validity
            Not Before: Jun  6 14:37:24 2016 GMT
            Not After : Jun  6 14:37:24 2036 GMT
        Subject: CN=National root CA for the Italian Electronic Identity Card, OU=Direz. Centr. per i Servizi Demografici - CNSD, O=Ministero dell'Interno, C=IT
        Subject Public Key Info:
            Public Key Algorithm: rsaEncryption
                Public-Key: (4096 bit)
                Modulus:
                    00:c2:90:a0:c5:88:a3:3e:55:f9:c4:ef:56:ef:ab:
                    01:4e:06:5e:ca:e1:08:70:46:4a:23:e5:b9:5c:04:
                    0f:0a:cb:6b:85:66:51:87:01:a4:a5:7c:6c:93:26:
                    49:e9:5b:8c:4f:13:1a:d0:af:21:d6:f7:1e:6a:ca:
                    ef:6b:6c:ff:d7:0a:20:92:2d:80:c2:c4:1f:80:d6:
                    20:ee:f6:17:51:16:e2:86:05:67:b5:78:41:a9:4a:
                    df:1e:40:22:4e:98:08:8c:3e:3c:b6:22:bf:e8:bf:
                    0b:fe:f3:f8:ec:0c:78:ec:9a:3c:36:b2:3c:ae:db:
                    c3:00:65:a0:91:d2:fc:8c:07:cb:57:90:2e:a6:79:
                    f3:3c:82:37:28:c1:02:6b:56:42:0a:8f:ea:b2:d3:
                    14:6e:38:85:19:3a:8c:2b:07:48:1b:8c:49:ed:fa:
                    aa:cd:b5:65:a0:37:aa:bb:a2:b5:15:4b:d8:13:08:
                    7b:5f:95:9e:e7:70:23:e5:d6:86:b4:da:a1:ae:54:
                    b9:92:72:80:4e:76:c3:bc:5b:1a:6a:6f:f9:0e:93:
                    6a:98:d5:3d:ce:ec:fe:5e:da:2c:10:2f:96:8f:ca:
                    5b:7c:c3:59:9f:09:a2:3d:2a:7e:d0:05:58:24:48:
                    f9:06:ee:c3:c1:91:ea:5b:e4:a7:bb:e6:f3:9c:a6:
                    51:df:67:4b:f2:33:a3:48:84:b0:3c:a9:a4:40:ff:
                    0a:e1:b4:fa:7f:b2:ec:27:c6:95:9e:8f:a8:a3:34:
                    58:e7:86:f3:9e:a8:1f:f0:5b:b8:ca:e1:3d:9e:bc:
                    c3:64:bf:d2:d8:0b:15:67:0e:2f:01:64:04:9b:9b:
                    55:31:56:e6:c5:ab:62:68:29:c6:d7:63:8f:ef:1f:
                    a4:59:b1:b2:d3:d7:38:0d:c3:3a:de:8d:4c:45:0e:
                    79:3d:b1:15:89:f7:db:71:69:b1:09:be:2d:5e:ad:
                    4f:35:1c:97:f4:f6:b9:df:5d:c3:47:9d:7b:9b:9c:
                    c4:8e:9c:68:b4:77:32:f6:82:86:a1:2b:53:26:45:
                    d0:5d:3d:c7:7b:0a:91:e7:4f:f2:d1:cd:ba:db:2f:
                    12:3b:60:9e:48:53:97:2a:46:16:1f:9c:94:03:c5:
                    3c:99:70:4c:59:29:f5:50:76:50:b6:bb:82:23:aa:
                    f3:e8:84:aa:3e:cb:02:90:75:b6:9f:ef:81:1d:6a:
                    03:14:cd:85:64:c9:a5:e8:1d:ad:f8:c5:bc:b3:be:
                    02:96:34:6b:a3:4d:c4:a8:d7:7b:5f:69:3f:1d:f6:
                    61:6b:86:70:63:a9:f0:0b:75:29:14:ef:06:b5:b5:
                    a9:69:6b:52:7e:a3:f7:d4:83:71:31:e3:13:09:95:
                    e7:89:c7
                Exponent: 65537 (0x10001)
        X509v3 extensions:
            X509v3 Subject Key Identifier: 
                47:CA:91:B9:D8:41:1C:F7:C0:E1:C5:16:50:3E:39:E1:2F:8B:F2:35
            X509v3 Basic Constraints: critical
                CA:TRUE
            X509v3 Authority Key Identifier: 
                47:CA:91:B9:D8:41:1C:F7:C0:E1:C5:16:50:3E:39:E1:2F:8B:F2:35
            X509v3 Certificate Policies: 
                Policy: 1.3.76.47.1
                  CPS: http://www.cartaidentita.interno.gov.it/policy/rootca_cps.pdf
            X509v3 CRL Distribution Points: 
                Full Name:
                  URI:http://ldap.cie.interno.gov.it/cierootca.crl
            X509v3 Key Usage: critical
                Digital Signature, Certificate Sign, CRL Sign
    Signature Algorithm: sha256WithRSAEncryption
    Signature Value:
        7c:c5:9b:fe:c1:e3:e0:f5:6c:95:94:33:7f:26:2f:65:03:e9:
        23:6b:d7:54:55:9b:da:21:1c:fc:79:f3:aa:db:f6:d0:e2:79:
        ae:f0:81:35:81:04:bc:99:5a:97:5b:0d:64:1f:49:4f:b5:de:
        44:ac:31:4b:d9:1f:ad:05:83:f0:3d:e5:62:ab:20:6a:36:f5:
        f8:c5:74:79:09:ae:b2:66:d1:37:3d:09:c3:0b:2d:42:d6:c9:
        00:72:a0:90:2f:ff:4d:4d:63:29:06:cd:d8:32:00:96:dd:92:
        f5:93:8a:18:65:64:1a:45:67:61:8c:41:3e:20:d3:df:57:77:
        a8:96:5e:21:1a:29:c0:c3:32:1f:68:f0:f5:34:7d:9c:b4:2f:
        6e:f8:1c:4e:aa:97:93:f9:c5:d8:aa:7e:fd:dd:ca:21:0c:f9:
        e6:79:38:43:0a:3a:49:09:3e:d9:57:5f:f1:f6:d2:0d:00:91:
        46:69:16:57:ea:0b:a9:a1:b8:46:9d:db:c6:07:dc:e9:53:27:
        29:7b:b0:46:0d:3e:a8:c4:a7:d5:2f:71:d0:fd:5e:90:15:af:
        f1:b1:18:77:fd:e8:7e:0e:ce:ab:bd:65:01:42:1b:a1:39:68:
        c3:18:5c:ec:61:5c:73:67:46:99:f0:91:aa:35:79:d6:a8:9b:
        12:53:0e:d7:03:49:d1:44:ec:1a:74:7c:a4:54:a5:25:54:a4:
        b6:d8:70:07:5a:d3:f9:20:97:bb:3f:6d:94:25:c5:92:8d:85:
        2a:8e:66:e4:00:f7:52:ca:60:1d:c2:c1:71:07:6e:52:4f:f6:
        3e:39:12:6f:3a:27:4a:f0:7e:90:76:f0:26:fd:78:f3:42:90:
        76:a8:4a:42:76:e4:fb:4a:cc:d8:0a:b6:29:24:19:90:8c:99:
        8a:5d:8b:24:04:2e:ea:01:64:7b:71:27:e2:68:de:d9:9c:e9:
        6c:bd:58:5f:45:cc:f6:32:2a:b0:b5:77:e3:49:74:5f:38:ef:
        bc:c2:a5:79:3c:97:9c:f9:cc:3a:05:b7:91:f7:d1:77:73:f7:
        1f:ad:a1:e8:69:7a:60:c0:04:1b:db:35:df:a3:49:fc:29:6b:
        2e:8e:ee:aa:fc:72:7a:fb:3b:ef:6e:06:bc:ca:62:fe:72:8e:
        0c:41:43:b2:95:17:7e:bb:68:45:d8:76:99:52:cc:9c:e5:8f:
        e7:65:fe:ca:87:cf:27:93:73:0e:c2:68:ca:6d:63:2e:57:5b:
        d2:5b:9a:4b:da:c5:65:f6:bc:af:3f:ae:99:cb:bf:d6:3d:85:
        7d:4a:9a:61:4c:00:ad:cf:5e:04:f0:f0:1c:a6:df:e9:cc:f1:
        07:3b:e9:2c:7f:2c:e1:cb
-----BEGIN CERTIFICATE-----
MIIG4DCCBMigAwIBAgIIRmop7bWMajUwDQYJKoZIhvcNAQELBQAwgasxQjBABgNV
BAMMOU5hdGlvbmFsIHJvb3QgQ0EgZm9yIHRoZSBJdGFsaWFuIEVsZWN0cm9uaWMg
SWRlbnRpdHkgQ2FyZDE3MDUGA1UECwwuRGlyZXouIENlbnRyLiBwZXIgaSBTZXJ2
aXppIERlbW9ncmFmaWNpIC0gQ05TRDEfMB0GA1UECgwWTWluaXN0ZXJvIGRlbGwn
SW50ZXJubzELMAkGA1UEBhMCSVQwHhcNMTYwNjA2MTQzNzI0WhcNMzYwNjA2MTQz
NzI0WjCBqzFCMEAGA1UEAww5TmF0aW9uYWwgcm9vdCBDQSBmb3IgdGhlIEl0YWxp
YW4gRWxlY3Ryb25pYyBJZGVudGl0eSBDYXJkMTcwNQYDVQQLDC5EaXJlei4gQ2Vu
dHIuIHBlciBpIFNlcnZpemkgRGVtb2dyYWZpY2kgLSBDTlNEMR8wHQYDVQQKDBZN
aW5pc3Rlcm8gZGVsbCdJbnRlcm5vMQswCQYDVQQGEwJJVDCCAiIwDQYJKoZIhvcN
AQEBBQADggIPADCCAgoCggIBAMKQoMWIoz5V+cTvVu+rAU4GXsrhCHBGSiPluVwE
DwrLa4VmUYcBpKV8bJMmSelbjE8TGtCvIdb3HmrK72ts/9cKIJItgMLEH4DWIO72
F1EW4oYFZ7V4QalK3x5AIk6YCIw+PLYiv+i/C/7z+OwMeOyaPDayPK7bwwBloJHS
/IwHy1eQLqZ58zyCNyjBAmtWQgqP6rLTFG44hRk6jCsHSBuMSe36qs21ZaA3qrui
tRVL2BMIe1+VnudwI+XWhrTaoa5UuZJygE52w7xbGmpv+Q6TapjVPc7s/l7aLBAv
lo/KW3zDWZ8Joj0qftAFWCRI+Qbuw8GR6lvkp7vm85ymUd9nS/Izo0iEsDyppED/
CuG0+n+y7CfGlZ6PqKM0WOeG856oH/BbuMrhPZ68w2S/0tgLFWcOLwFkBJubVTFW
5sWrYmgpxtdjj+8fpFmxstPXOA3DOt6NTEUOeT2xFYn323FpsQm+LV6tTzUcl/T2
ud9dw0ede5ucxI6caLR3MvaChqErUyZF0F09x3sKkedP8tHNutsvEjtgnkhTlypG
Fh+clAPFPJlwTFkp9VB2ULa7giOq8+iEqj7LApB1tp/vgR1qAxTNhWTJpegdrfjF
vLO+ApY0a6NNxKjXe19pPx32YWuGcGOp8At1KRTvBrW1qWlrUn6j99SDcTHjEwmV
54nHAgMBAAGjggEEMIIBADAdBgNVHQ4EFgQUR8qRudhBHPfA4cUWUD454S+L8jUw
DwYDVR0TAQH/BAUwAwEB/zAfBgNVHSMEGDAWgBRHypG52EEc98DhxRZQPjnhL4vy
NTBeBgNVHSAEVzBVMFMGBCtMLwEwSzBJBggrBgEFBQcCARY9aHR0cDovL3d3dy5j
YXJ0YWlkZW50aXRhLmludGVybm8uZ292Lml0L3BvbGljeS9yb290Y2FfY3BzLnBk
ZjA9BgNVHR8ENjA0MDKgMKAuhixodHRwOi8vbGRhcC5jaWUuaW50ZXJuby5nb3Yu
aXQvY2llcm9vdGNhLmNybDAOBgNVHQ8BAf8EBAMCAYYwDQYJKoZIhvcNAQELBQAD
ggIBAHzFm/7B4+D1bJWUM38mL2UD6SNr11RVm9ohHPx586rb9tDiea7wgTWBBLyZ
WpdbDWQfSU+13kSsMUvZH60Fg/A95WKrIGo29fjFdHkJrrJm0Tc9CcMLLULWyQBy
oJAv/01NYykGzdgyAJbdkvWTihhlZBpFZ2GMQT4g099Xd6iWXiEaKcDDMh9o8PU0
fZy0L274HE6ql5P5xdiqfv3dyiEM+eZ5OEMKOkkJPtlXX/H20g0AkUZpFlfqC6mh
uEad28YH3OlTJyl7sEYNPqjEp9UvcdD9XpAVr/GxGHf96H4Ozqu9ZQFCG6E5aMMY
XOxhXHNnRpnwkao1edaomxJTDtcDSdFE7Bp0fKRUpSVUpLbYcAda0/kgl7s/bZQl
xZKNhSqOZuQA91LKYB3CwXEHblJP9j45Em86J0rwfpB28Cb9ePNCkHaoSkJ25PtK
zNgKtikkGZCMmYpdiyQELuoBZHtxJ+Jo3tmc6Wy9WF9FzPYyKrC1d+NJdF8477zC
pXk8l5z5zDoFt5H30Xdz9x+toehpemDABBvbNd+jSfwpay6O7qr8cnr7O+9uBrzK
Yv5yjgxBQ7KVF367aEXYdplSzJzlj+dl/sqHzyeTcw7CaMptYy5XW9JbmkvaxWX2
vK8/rpnLv9Y9hX1KmmFMAK3PXgTw8Bym3+nM8Qc76Sx/LOHL
-----END CERTIFICATE-----