Certificate:
    Data:
        Version: 3 (0x2)
        Serial Number: 7937436629136231488 (0x6e27708f52d6cc40)
        Signature Algorithm: sha256WithRSAEncryption
        Issuer: CN=National root CA for the Italian Electronic Identity Card, OU=Direz. Centr. per i Servizi Demografici - CNSD, O=Ministero dell'Interno, C=IT
        Validity
            Not Before: May 25 06:14:32 2020 GMT
            Not After : May 22 06:14:32 2035 GMT
        Subject: CN=Issuing sub CA for the Italian Electronic Identity Card - SUBCA002, OU=Direz. Centr. per i Servizi Demografici - CNSD, O=Ministero dell'Interno, C=IT
        Subject Public Key Info:
            Public Key Algorithm: rsaEncryption
                Public-Key: (4096 bit)
                Modulus:
                    00:99:74:3f:79:71:b3:15:db:9a:f5:bf:8b:a6:f8:
                    1c:ea:f3:13:34:b0:9a:49:a3:85:67:02:82:6f:33:
                    ca:41:f0:e5:99:bd:c8:0f:1e:c7:77:e1:b0:f4:d0:
                    6b:0f:ed:a3:54:f6:d7:cd:e4:6a:97:20:fe:59:d7:
                    9d:1d:91:c7:9b:f7:56:fb:d1:24:e0:ec:ea:43:33:
                    58:84:3f:7a:52:63:82:e8:ad:96:c3:eb:8e:68:e0:
                    b0:85:d8:04:8f:91:7b:c2:13:1c:fd:09:ef:cd:e3:
                    1e:15:8c:ee:46:e1:27:c5:c0:8e:4d:fd:9a:15:ff:
                    34:5c:7a:98:b8:0e:06:a7:5e:a7:f4:00:92:57:55:
                    f2:cd:84:02:9a:1d:72:5b:dd:07:8d:90:7e:b9:0f:
                    77:7c:96:66:6a:3b:8c:fe:49:a7:94:09:e4:b9:ac:
                    4e:15:97:0a:65:ca:08:f7:00:89:76:35:67:f3:45:
                    58:ad:f6:0e:68:eb:69:b0:51:26:6d:98:ca:f3:ac:
                    5d:05:63:8b:28:d8:8e:8c:30:54:81:b4:51:e1:74:
                    64:60:42:17:45:9d:ee:38:c8:82:1c:a2:bd:38:bf:
                    84:c5:97:3b:2f:be:5e:c7:e6:80:24:b9:18:3e:b2:
                    96:7b:12:3f:eb:c9:5e:63:85:4b:a6:88:36:44:e9:
                    52:57:d8:1f:0d:f9:55:15:3d:44:52:2d:f6:ab:a7:
                    29:a2:c9:03:e0:60:bc:76:71:18:b7:1f:85:ee:a6:
                    bd:e2:da:96:e9:c2:1f:b2:8b:8a:9d:28:54:33:b9:
                    ab:0d:bf:72:de:64:5f:f3:e5:70:39:46:23:de:de:
                    59:62:36:12:c1:e6:68:77:87:9e:cf:be:9f:54:6e:
                    45:1a:66:1e:51:79:71:bf:76:74:5d:dc:88:52:a0:
                    9a:45:4a:2b:7c:47:94:6f:a3:d3:ef:80:ba:c2:4c:
                    28:e4:89:66:5d:a7:f2:f2:f6:63:37:82:59:67:1b:
                    89:d6:5e:cd:ef:ea:e4:ca:b4:1f:eb:27:45:32:aa:
                    f5:d9:e3:7f:09:67:fb:cd:45:be:1f:46:8e:d5:af:
                    88:38:09:fd:3a:dd:e8:24:6b:30:45:21:6c:28:b7:
                    76:ba:55:bd:84:d3:da:76:bd:1d:58:a4:2c:3e:38:
                    0a:ea:d9:81:c3:98:09:a3:e5:7f:8e:e1:8c:a4:30:
                    35:3d:1d:06:db:d9:74:5e:93:87:02:73:f4:71:4e:
                    4c:c1:d4:4e:26:97:0f:8b:c4:0b:a9:0b:46:70:00:
                    d6:72:fb:b6:27:0b:37:b3:1f:44:40:8c:2b:ef:fc:
                    73:c8:60:1d:47:b9:44:1d:43:5e:26:1f:4e:eb:36:
                    58:e1:b3
                Exponent: 65537 (0x10001)
        X509v3 extensions:
            X509v3 Subject Key Identifier: 
                F9:2E:E9:08:64:9F:A2:B8:2B:A8:32:95:41:73:E9:7D:9D:0C:15:18
            X509v3 Basic Constraints: critical
                CA:TRUE, pathlen:0
            X509v3 Authority Key Identifier: 
                47:CA:91:B9:D8:41:1C:F7:C0:E1:C5:16:50:3E:39:E1:2F:8B:F2:35
            X509v3 Certificate Policies: 
                Policy: 1.3.76.47.2
                  CPS: http://www.cartaidentita.interno.gov.it/policy/subca_auth_cps.pdf
            X509v3 CRL Distribution Points: 
                Full Name:
                  URI:http://ldap.cie.interno.gov.it/cierootca.crl
            X509v3 Key Usage: critical
                Digital Signature, Certificate Sign, CRL Sign
    Signature Algorithm: sha256WithRSAEncryption
    Signature Value:
        55:98:b9:f2:d3:48:d9:ab:d6:68:a7:64:9f:96:37:20:52:d6:
        76:58:06:55:51:c2:35:b6:c5:db:35:12:ac:6a:b8:60:aa:0d:
        46:dc:72:af:f6:3b:9f:ab:16:28:2f:e8:1f:00:e6:b9:8d:1a:
        0f:9a:ab:d6:1a:e4:81:cc:cf:5f:48:cb:bc:6d:44:43:75:29:
        63:a1:3a:2c:e0:e4:7e:f2:18:04:63:3e:0d:a0:34:c7:ab:25:
        f1:5e:0c:06:55:c1:91:4b:3f:23:a6:91:54:40:e1:6e:af:dc:
        92:73:1f:a6:19:8d:57:3c:68:8e:dc:50:43:c1:13:ae:da:38:
        48:4f:77:85:05:b4:ea:d3:7e:bd:94:fd:86:23:ea:80:80:89:
        1e:a2:08:23:c1:1d:6e:d5:63:5a:b2:80:83:78:b5:62:0c:ea:
        d6:bd:23:81:df:f1:4f:40:88:46:55:68:6c:26:72:06:ab:cc:
        c9:40:67:ee:a3:f3:fc:69:ed:f7:0a:57:81:eb:d6:99:22:c4:
        77:4e:e3:d0:d7:bb:56:83:9c:c6:e9:96:ea:ed:ff:fd:a7:4d:
        a9:4e:6e:84:ae:3d:13:2e:d3:c9:a8:ca:0f:2e:5a:16:fc:b9:
        8e:e4:47:c1:f4:17:13:61:3d:7c:ee:fa:20:8d:9d:cc:fe:e9:
        6b:48:cf:d9:9b:86:db:df:31:e0:3c:13:51:63:43:65:db:b3:
        30:ec:4f:6c:c1:a0:97:78:82:72:48:b1:af:fd:a4:b8:a3:87:
        0d:aa:41:43:24:7e:5b:b6:b0:eb:4a:14:01:18:3f:40:36:2e:
        fb:2e:54:a5:11:0e:05:9b:36:35:5f:85:19:93:97:a7:59:0d:
        40:fe:e3:b2:94:ba:ed:7c:6d:e9:b9:77:1e:91:d7:31:4e:77:
        82:76:46:c0:af:ec:a8:f3:73:f3:6d:af:d9:5f:b9:1e:73:fb:
        66:9e:82:fc:41:f3:c5:01:ba:d0:c7:6c:27:c4:af:40:9b:14:
        26:bf:1c:00:9b:d1:a6:91:12:1e:f1:31:60:01:63:83:20:f8:
        80:fe:b4:4c:54:8d:93:bc:8d:fb:c4:65:96:15:93:4e:c6:48:
        0f:63:9b:92:6a:36:6e:38:0a:d3:ae:30:d4:18:7a:9a:94:a4:
        12:92:cc:a5:21:9e:b9:8b:8b:14:5e:c1:c6:37:21:f4:38:5b:
        7b:65:80:1f:0b:46:08:97:e7:fa:db:21:76:33:0b:6a:56:fe:
        db:64:1f:c6:17:bb:db:d4:96:46:8f:d8:6a:4d:41:95:46:3c:
        f4:30:5a:ee:30:1b:0c:86:10:14:53:29:02:4d:e8:08:ab:90:
        bf:30:57:02:68:94:04:3d
-----BEGIN CERTIFICATE-----
MIIG8DCCBNigAwIBAgIIbidwj1LWzEAwDQYJKoZIhvcNAQELBQAwgasxQjBABgNV
BAMMOU5hdGlvbmFsIHJvb3QgQ0EgZm9yIHRoZSBJdGFsaWFuIEVsZWN0cm9uaWMg
SWRlbnRpdHkgQ2FyZDE3MDUGA1UECwwuRGlyZXouIENlbnRyLiBwZXIgaSBTZXJ2
aXppIERlbW9ncmFmaWNpIC0gQ05TRDEfMB0GA1UECgwWTWluaXN0ZXJvIGRlbGwn
SW50ZXJubzELMAkGA1UEBhMCSVQwHhcNMjAwNTI1MDYxNDMyWhcNMzUwNTIyMDYx
NDMyWjCBtDFLMEkGA1UEAwxCSXNzdWluZyBzdWIgQ0EgZm9yIHRoZSBJdGFsaWFu
IEVsZWN0cm9uaWMgSWRlbnRpdHkgQ2FyZCAtIFNVQkNBMDAyMTcwNQYDVQQLDC5E
aXJlei4gQ2VudHIuIHBlciBpIFNlcnZpemkgRGVtb2dyYWZpY2kgLSBDTlNEMR8w
HQYDVQQKDBZNaW5pc3Rlcm8gZGVsbCdJbnRlcm5vMQswCQYDVQQGEwJJVDCCAiIw
DQYJKoZIhvcNAQEBBQADggIPADCCAgoCggIBAJl0P3lxsxXbmvW/i6b4HOrzEzSw
mkmjhWcCgm8zykHw5Zm9yA8ex3fhsPTQaw/to1T2183kapcg/lnXnR2Rx5v3VvvR
JODs6kMzWIQ/elJjguitlsPrjmjgsIXYBI+Re8ITHP0J783jHhWM7kbhJ8XAjk39
mhX/NFx6mLgOBqdep/QAkldV8s2EApodclvdB42QfrkPd3yWZmo7jP5Jp5QJ5Lms
ThWXCmXKCPcAiXY1Z/NFWK32DmjrabBRJm2YyvOsXQVjiyjYjowwVIG0UeF0ZGBC
F0Wd7jjIghyivTi/hMWXOy++XsfmgCS5GD6ylnsSP+vJXmOFS6aINkTpUlfYHw35
VRU9RFIt9qunKaLJA+BgvHZxGLcfhe6mveLalunCH7KLip0oVDO5qw2/ct5kX/Pl
cDlGI97eWWI2EsHmaHeHns++n1RuRRpmHlF5cb92dF3ciFKgmkVKK3xHlG+j0++A
usJMKOSJZl2n8vL2YzeCWWcbidZeze/q5Mq0H+snRTKq9dnjfwln+81Fvh9GjtWv
iDgJ/Trd6CRrMEUhbCi3drpVvYTT2na9HVikLD44CurZgcOYCaPlf47hjKQwNT0d
BtvZdF6ThwJz9HFOTMHUTiaXD4vEC6kLRnAA1nL7ticLN7MfRECMK+/8c8hgHUe5
RB1DXiYfTus2WOGzAgMBAAGjggELMIIBBzAdBgNVHQ4EFgQU+S7pCGSforgrqDKV
QXPpfZ0MFRgwEgYDVR0TAQH/BAgwBgEB/wIBADAfBgNVHSMEGDAWgBRHypG52EEc
98DhxRZQPjnhL4vyNTBiBgNVHSAEWzBZMFcGBCtMLwIwTzBNBggrBgEFBQcCARZB
aHR0cDovL3d3dy5jYXJ0YWlkZW50aXRhLmludGVybm8uZ292Lml0L3BvbGljeS9z
dWJjYV9hdXRoX2Nwcy5wZGYwPQYDVR0fBDYwNDAyoDCgLoYsaHR0cDovL2xkYXAu
Y2llLmludGVybm8uZ292Lml0L2NpZXJvb3RjYS5jcmwwDgYDVR0PAQH/BAQDAgGG
MA0GCSqGSIb3DQEBCwUAA4ICAQBVmLny00jZq9Zop2SfljcgUtZ2WAZVUcI1tsXb
NRKsarhgqg1G3HKv9jufqxYoL+gfAOa5jRoPmqvWGuSBzM9fSMu8bURDdSljoTos
4OR+8hgEYz4NoDTHqyXxXgwGVcGRSz8jppFUQOFur9yScx+mGY1XPGiO3FBDwROu
2jhIT3eFBbTq0369lP2GI+qAgIkeoggjwR1u1WNasoCDeLViDOrWvSOB3/FPQIhG
VWhsJnIGq8zJQGfuo/P8ae33CleB69aZIsR3TuPQ17tWg5zG6Zbq7f/9p02pTm6E
rj0TLtPJqMoPLloW/LmO5EfB9BcTYT187vogjZ3M/ulrSM/Zm4bb3zHgPBNRY0Nl
27Mw7E9swaCXeIJySLGv/aS4o4cNqkFDJH5btrDrShQBGD9ANi77LlSlEQ4FmzY1
X4UZk5enWQ1A/uOylLrtfG3puXcekdcxTneCdkbAr+yo83Pzba/ZX7kec/tmnoL8
QfPFAbrQx2wnxK9AmxQmvxwAm9GmkRIe8TFgAWODIPiA/rRMVI2TvI37xGWWFZNO
xkgPY5uSajZuOArTrjDUGHqalKQSksylIZ65i4sUXsHGNyH0OFt7ZYAfC0YIl+f6
2yF2MwtqVv7bZB/GF7vb1JZGj9hqTUGVRjz0MFruMBsMhhAUUykCTegIq5C/MFcC
aJQEPQ==
-----END CERTIFICATE-----
