Certificate:
    Data:
        Version: 3 (0x2)
        Serial Number: 4427805127385863940 (0x3d72b94dc87cd704)
        Signature Algorithm: sha256WithRSAEncryption
        Issuer: CN=Issuing sub CA for the Italian Electronic Identity Card - SUBCA002, OU=Direz. Centr. per i Servizi Demografici - CNSD, O=Ministero dell'Interno, C=IT
        Validity
            Not Before: Sep 28 09:13:36 2023 GMT
            Not After : Sep  4 22:59:00 2033 GMT
        Subject: CN=DMRFRZ60P04H501I\/641865016443/serialNumber=IDCIT-CA78772QG, GN=FABRIZIO, SN=D'AMORE, C=IT
        Subject Public Key Info:
            Public Key Algorithm: rsaEncryption
                Public-Key: (2048 bit)
                Modulus:
                    00:a8:c5:62:5b:5d:aa:8e:1e:6d:8e:f2:1b:60:67:
                    86:a6:00:51:60:a9:b1:9b:1a:13:e3:2f:75:b3:c4:
                    32:4f:90:13:3a:4d:64:ec:6d:d6:d5:b7:04:b0:15:
                    36:f1:2b:20:30:6d:2f:6e:41:e7:21:f6:23:e4:7f:
                    ba:be:3f:df:eb:65:37:84:19:65:74:01:89:e9:1c:
                    4f:e2:77:6b:f9:b9:59:de:86:20:0a:35:eb:e4:86:
                    4e:75:6b:26:6d:65:e5:06:01:1b:1f:02:24:04:5f:
                    e0:27:de:54:55:98:d4:64:0f:af:2d:74:18:16:24:
                    c5:06:29:d0:4a:13:5d:f2:89:04:46:a2:c8:05:9f:
                    03:e6:1f:94:c4:f9:b8:b7:b4:86:77:f6:3c:c7:4b:
                    52:f7:4a:20:66:36:f3:4a:e5:85:ec:7d:9a:7e:4d:
                    9e:d4:15:04:51:e1:4b:1b:33:80:e1:ef:7e:c9:50:
                    23:ae:64:2c:d3:22:10:f3:5a:7f:75:8c:33:3c:01:
                    de:c3:cc:bf:14:84:ee:d6:e1:3f:fc:aa:b7:33:8f:
                    ce:26:be:bf:55:8a:9f:63:10:de:09:b0:e3:e1:9e:
                    05:fe:22:94:e7:08:f4:d3:78:7b:b6:36:89:31:4b:
                    27:8e:18:66:2d:68:af:1f:78:a7:c4:35:65:55:63:
                    89:55
                Exponent: 65537 (0x10001)
        X509v3 extensions:
            X509v3 Authority Key Identifier: 
                F9:2E:E9:08:64:9F:A2:B8:2B:A8:32:95:41:73:E9:7D:9D:0C:15:18
            Authority Information Access: 
                OCSP - URI:https://ocsp.cie.interno.gov.it/
            X509v3 Certificate Policies: 
                Policy: 1.3.76.47.4
                  User Notice:
                    Explicit Text: X.509 authentication certificate issued by the Italian Ministry of Interior for the Electronic Identity Card
                  CPS: http://www.cartaidentita.interno.gov.it/policy/cittadini_cps.pdf
            X509v3 Extended Key Usage: 
                TLS Web Client Authentication
            X509v3 CRL Distribution Points: 
                Full Name:
                  URI:http://ldap.cie.interno.gov.it/ciesubca002.crl
            X509v3 Subject Key Identifier: 
                ED:95:C6:F1:83:6D:33:3A:CF:07:F8:CA:F4:1E:76:57:75:BA:04:A6
            X509v3 Key Usage: critical
                Digital Signature
    Signature Algorithm: sha256WithRSAEncryption
    Signature Value:
        37:dc:fe:36:74:09:52:43:e9:dc:a3:c3:2c:33:32:65:9a:65:
        10:fb:b1:c2:93:59:14:69:c8:ce:80:fc:72:08:e3:86:3d:4f:
        6b:c4:48:3f:f9:41:0e:28:99:c1:c1:e3:7d:3b:23:8c:b8:e8:
        2a:e6:1c:a1:2b:26:2f:1f:3d:6c:1c:7f:24:96:56:95:4b:c6:
        22:62:7d:70:c3:56:98:bc:f9:37:08:78:7e:24:f7:36:06:bc:
        99:24:4a:2f:7f:b0:34:3e:55:fe:23:ae:15:a0:18:f7:2a:bf:
        40:81:24:be:b6:f0:f3:01:ff:52:f1:b3:4d:b7:d5:be:87:47:
        77:58:a2:cc:0f:4c:8c:96:08:d4:7d:7d:9d:c9:c6:3d:6f:98:
        77:56:61:ed:c2:90:d2:40:aa:6f:68:fa:55:88:98:70:ba:53:
        46:f2:dd:d6:11:62:1c:9a:bd:ca:98:72:39:cf:90:63:3f:38:
        c7:fa:dc:af:ee:c4:22:70:7d:47:e8:31:8c:14:c8:a5:bf:af:
        ea:7b:90:df:bc:ed:0c:df:04:36:d6:30:88:28:b6:08:73:d2:
        ec:2a:11:ae:86:dd:eb:b3:54:02:32:45:cd:65:89:32:02:36:
        fd:77:af:f7:26:6a:dd:1a:fd:e0:70:e1:dd:d2:8b:67:43:e8:
        3f:f5:98:6c:4d:06:38:1c:15:56:b6:e9:ee:66:8b:f8:a2:e3:
        de:74:f1:9c:e8:ef:09:24:32:5f:ee:3c:6f:15:30:40:f3:99:
        f9:2e:23:5b:7e:63:be:85:78:47:c5:51:f8:69:81:b9:34:c2:
        9e:83:e9:c0:12:13:0d:a9:85:a2:53:ef:ff:65:51:67:57:83:
        bb:32:55:87:8f:7c:f0:be:a1:1d:92:6b:1b:42:0a:bd:0a:b4:
        d2:53:e9:c3:bf:3d:e6:0c:dd:34:bf:3b:db:cf:2a:fe:bc:78:
        93:42:c7:46:c9:35:9e:5c:a0:b0:a9:23:d4:5f:cc:8a:03:19:
        4d:a1:b8:b7:d1:81:30:0c:1f:e7:db:5b:5e:cc:8a:24:f5:f6:
        14:73:40:90:a5:5f:c3:6c:9b:2a:c9:6c:ef:cd:e4:73:98:10:
        a8:8a:92:d4:d4:2e:a5:bd:2f:82:5d:6a:f8:e1:44:55:2a:c4:
        c8:9b:9d:8c:1b:6d:36:af:10:b2:1d:81:b9:a2:8f:fc:2d:b0:
        fc:ad:d6:1b:a0:8c:29:13:da:07:d5:c3:e3:d3:34:b0:6f:8c:
        02:3f:5f:99:66:81:5c:9d:df:41:b0:10:fe:9a:65:fb:c1:50:
        56:3d:6c:80:00:f7:e4:d5:65:7b:bf:46:a5:27:ba:71:48:d1:
        c5:d0:af:af:7e:95:09:92
-----BEGIN CERTIFICATE-----
MIIGeTCCBGGgAwIBAgIIPXK5Tch81wQwDQYJKoZIhvcNAQELBQAwgbQxSzBJBgNV
BAMMQklzc3Vpbmcgc3ViIENBIGZvciB0aGUgSXRhbGlhbiBFbGVjdHJvbmljIElk
ZW50aXR5IENhcmQgLSBTVUJDQTAwMjE3MDUGA1UECwwuRGlyZXouIENlbnRyLiBw
ZXIgaSBTZXJ2aXppIERlbW9ncmFmaWNpIC0gQ05TRDEfMB0GA1UECgwWTWluaXN0
ZXJvIGRlbGwnSW50ZXJubzELMAkGA1UEBhMCSVQwHhcNMjMwOTI4MDkxMzM2WhcN
MzMwOTA0MjI1OTAwWjB0MSYwJAYDVQQDDB1ETVJGUlo2MFAwNEg1MDFJLzY0MTg2
NTAxNjQ0MzEYMBYGA1UEBRMPSURDSVQtQ0E3ODc3MlFHMREwDwYDVQQqDAhGQUJS
SVpJTzEQMA4GA1UEBAwHRCdBTU9SRTELMAkGA1UEBhMCSVQwggEiMA0GCSqGSIb3
DQEBAQUAA4IBDwAwggEKAoIBAQCoxWJbXaqOHm2O8htgZ4amAFFgqbGbGhPjL3Wz
xDJPkBM6TWTsbdbVtwSwFTbxKyAwbS9uQech9iPkf7q+P9/rZTeEGWV0AYnpHE/i
d2v5uVnehiAKNevkhk51ayZtZeUGARsfAiQEX+An3lRVmNRkD68tdBgWJMUGKdBK
E13yiQRGosgFnwPmH5TE+bi3tIZ39jzHS1L3SiBmNvNK5YXsfZp+TZ7UFQRR4Usb
M4Dh737JUCOuZCzTIhDzWn91jDM8Ad7DzL8UhO7W4T/8qrczj84mvr9Vip9jEN4J
sOPhngX+IpTnCPTTeHu2NokxSyeOGGYtaK8feKfENWVVY4lVAgMBAAGjggHMMIIB
yDAfBgNVHSMEGDAWgBT5LukIZJ+iuCuoMpVBc+l9nQwVGDA8BggrBgEFBQcBAQQw
MC4wLAYIKwYBBQUHMAGGIGh0dHBzOi8vb2NzcC5jaWUuaW50ZXJuby5nb3YuaXQv
MIHhBgNVHSAEgdkwgdYwgdMGBCtMLwQwgcowegYIKwYBBQUHAgIwbgxsWC41MDkg
YXV0aGVudGljYXRpb24gY2VydGlmaWNhdGUgaXNzdWVkIGJ5IHRoZSBJdGFsaWFu
IE1pbmlzdHJ5IG9mIEludGVyaW9yIGZvciB0aGUgRWxlY3Ryb25pYyBJZGVudGl0
eSBDYXJkMEwGCCsGAQUFBwIBFkBodHRwOi8vd3d3LmNhcnRhaWRlbnRpdGEuaW50
ZXJuby5nb3YuaXQvcG9saWN5L2NpdHRhZGluaV9jcHMucGRmMBMGA1UdJQQMMAoG
CCsGAQUFBwMCMD8GA1UdHwQ4MDYwNKAyoDCGLmh0dHA6Ly9sZGFwLmNpZS5pbnRl
cm5vLmdvdi5pdC9jaWVzdWJjYTAwMi5jcmwwHQYDVR0OBBYEFO2VxvGDbTM6zwf4
yvQedld1ugSmMA4GA1UdDwEB/wQEAwIHgDANBgkqhkiG9w0BAQsFAAOCAgEAN9z+
NnQJUkPp3KPDLDMyZZplEPuxwpNZFGnIzoD8cgjjhj1Pa8RIP/lBDiiZwcHjfTsj
jLjoKuYcoSsmLx89bBx/JJZWlUvGImJ9cMNWmLz5Nwh4fiT3Nga8mSRKL3+wND5V
/iOuFaAY9yq/QIEkvrbw8wH/UvGzTbfVvodHd1iizA9MjJYI1H19ncnGPW+Yd1Zh
7cKQ0kCqb2j6VYiYcLpTRvLd1hFiHJq9yphyOc+QYz84x/rcr+7EInB9R+gxjBTI
pb+v6nuQ37ztDN8ENtYwiCi2CHPS7CoRrobd67NUAjJFzWWJMgI2/Xev9yZq3Rr9
4HDh3dKLZ0PoP/WYbE0GOBwVVrbp7maL+KLj3nTxnOjvCSQyX+48bxUwQPOZ+S4j
W35jvoV4R8VR+GmBuTTCnoPpwBITDamFolPv/2VRZ1eDuzJVh4988L6hHZJrG0IK
vQq00lPpw7895gzdNL87288q/rx4k0LHRsk1nlygsKkj1F/MigMZTaG4t9GBMAwf
59tbXsyKJPX2FHNAkKVfw2ybKsls783kc5gQqIqS1NQupb0vgl1q+OFEVSrEyJud
jBttNq8Qsh2BuaKP/C2w/K3WG6CMKRPaB9XD49M0sG+MAj9fmWaBXJ3fQbAQ/ppl
+8FQVj1sgAD35NVle79GpSe6cUjRxdCvr36VCZI=
-----END CERTIFICATE-----
